target datalayout = "e-m:e-p270:32:32-p271:32:32-p272:64:64-i64:64-i128:128-f80:128-n8:16:32:64-S128"
target triple = "x86_64-pc-linux-gnu"

%struct.H5O_storage_virtual_ent_t = type { %struct.H5O_storage_virtual_srcdset_t, ptr, ptr, ptr, ptr, i64, i64, i64, i64, ptr, i64, i64, ptr, i64, i64, i32, i32, i64, i64, i64, i64, i32, i32 }
%struct.H5O_storage_virtual_srcdset_t = type { ptr, ptr, ptr, ptr, ptr, ptr, i8, ptr }
%struct.H5O_storage_virtual_name_seg_t = type { ptr, ptr }

@H5D_init_g = external global i8, align 1
@H5_libterm_g = external global i8, align 1
@.str.1 = private unnamed_addr constant [104 x i8] c"generated/home/dtcxzyw/WorkSpace/Projects/compilers/llvm-opt-benchmark/bench/hdf5/hdf5/src/H5Dvirtual.c\00", align 1
@H5E_DATASET_g = external global i64, align 8
@H5E_CLOSEERROR_g = external global i64, align 8
@.str.56 = private unnamed_addr constant [31 x i8] c"unable to close source dataset\00", align 1
@__func__.H5D__virtual_reset_source_dset = private unnamed_addr constant [31 x i8] c"H5D__virtual_reset_source_dset\00", align 1
@.str.73 = private unnamed_addr constant [44 x i8] c"unable to release clipped virtual selection\00", align 1
@.str.74 = private unnamed_addr constant [36 x i8] c"unable to release virtual selection\00", align 1
@.str.75 = private unnamed_addr constant [43 x i8] c"unable to release clipped source selection\00", align 1

; Function Attrs: nounwind uwtable
define internal i32 @H5D__virtual_reset_source_dset(ptr noundef %0, ptr noundef %1) #0 {
  %3 = alloca ptr, align 8
  %4 = alloca ptr, align 8
  %5 = alloca i32, align 4
  %6 = alloca i8, align 1
  store ptr %0, ptr %3, align 8, !tbaa !127
  store ptr %1, ptr %4, align 8, !tbaa !165
  call void @llvm.lifetime.start.p0(i64 4, ptr %5) #10
  store i32 0, ptr %5, align 4, !tbaa !12
  call void @llvm.lifetime.start.p0(i64 1, ptr %6) #10
  store i8 0, ptr %6, align 1, !tbaa !14
  %7 = load i8, ptr @H5D_init_g, align 1, !tbaa !14, !range !16, !noundef !17
  %8 = trunc i8 %7 to i1
  br i1 %8, label %13, label %9

9:                                                ; preds = %2
  %10 = load i8, ptr @H5_libterm_g, align 1, !tbaa !14, !range !16, !noundef !17
  %11 = trunc i8 %10 to i1
  %12 = xor i1 %11, true
  br label %13

13:                                               ; preds = %9, %2
  %14 = phi i1 [ true, %2 ], [ %12, %9 ]
  %15 = xor i1 %14, true
  %16 = xor i1 %15, true
  %17 = zext i1 %16 to i32
  %18 = sext i32 %17 to i64
  %19 = call i64 @llvm.expect.i64(i64 %18, i64 1)
  %20 = icmp ne i64 %19, 0
  br i1 %20, label %21, label %206

21:                                               ; preds = %13
  %22 = load ptr, ptr %4, align 8, !tbaa !165
  %23 = getelementptr inbounds nuw %struct.H5O_storage_virtual_srcdset_t, ptr %22, i32 0, i32 5
  %24 = load ptr, ptr %23, align 8, !tbaa !82
  %25 = icmp ne ptr %24, null
  br i1 %25, label %26, label %51

26:                                               ; preds = %21
  %27 = load ptr, ptr %4, align 8, !tbaa !165
  %28 = getelementptr inbounds nuw %struct.H5O_storage_virtual_srcdset_t, ptr %27, i32 0, i32 5
  %29 = load ptr, ptr %28, align 8, !tbaa !82
  %30 = call i32 @H5D_close(ptr noundef %29)
  %31 = icmp slt i32 %30, 0
  br i1 %31, label %32, label %48

32:                                               ; preds = %26
  br label %33

33:                                               ; preds = %32
  br label %34

34:                                               ; preds = %33
  br label %35

35:                                               ; preds = %34
  %36 = load i64, ptr @H5E_DATASET_g, align 8, !tbaa !10
  %37 = load i64, ptr @H5E_CLOSEERROR_g, align 8, !tbaa !10
  %38 = call i32 (ptr, ptr, i32, i64, i64, ptr, ...) @H5E_printf_stack(ptr noundef @.str.1, ptr noundef @__func__.H5D__virtual_reset_source_dset, i32 noundef 960, i64 noundef %36, i64 noundef %37, ptr noundef @.str.56)
  br label %39

39:                                               ; preds = %35
  br label %40

40:                                               ; preds = %39
  store i8 1, ptr %6, align 1, !tbaa !14
  %41 = load i8, ptr %6, align 1, !tbaa !14, !range !16, !noundef !17
  %42 = trunc i8 %41 to i1
  %43 = zext i1 %42 to i8
  store i8 %43, ptr %6, align 1, !tbaa !14
  br label %44

44:                                               ; preds = %40
  br label %45

45:                                               ; preds = %44
  store i32 -1, ptr %5, align 4, !tbaa !12
  br label %46

46:                                               ; preds = %45
  br label %47

47:                                               ; preds = %46
  br label %48

48:                                               ; preds = %47, %26
  %49 = load ptr, ptr %4, align 8, !tbaa !165
  %50 = getelementptr inbounds nuw %struct.H5O_storage_virtual_srcdset_t, ptr %49, i32 0, i32 5
  store ptr null, ptr %50, align 8, !tbaa !82
  br label %51

51:                                               ; preds = %48, %21
  %52 = load ptr, ptr %3, align 8, !tbaa !127
  %53 = getelementptr inbounds nuw %struct.H5O_storage_virtual_ent_t, ptr %52, i32 0, i32 9
  %54 = load ptr, ptr %53, align 8, !tbaa !143
  %55 = icmp ne ptr %54, null
  br i1 %55, label %56, label %73

56:                                               ; preds = %51
  %57 = load ptr, ptr %4, align 8, !tbaa !165
  %58 = getelementptr inbounds nuw %struct.H5O_storage_virtual_srcdset_t, ptr %57, i32 0, i32 1
  %59 = load ptr, ptr %58, align 8, !tbaa !166
  %60 = load ptr, ptr %3, align 8, !tbaa !127
  %61 = getelementptr inbounds nuw %struct.H5O_storage_virtual_ent_t, ptr %60, i32 0, i32 9
  %62 = load ptr, ptr %61, align 8, !tbaa !143
  %63 = getelementptr inbounds nuw %struct.H5O_storage_virtual_name_seg_t, ptr %62, i32 0, i32 0
  %64 = load ptr, ptr %63, align 8, !tbaa !148
  %65 = icmp ne ptr %59, %64
  br i1 %65, label %66, label %73

66:                                               ; preds = %56
  %67 = load ptr, ptr %4, align 8, !tbaa !165
  %68 = getelementptr inbounds nuw %struct.H5O_storage_virtual_srcdset_t, ptr %67, i32 0, i32 1
  %69 = load ptr, ptr %68, align 8, !tbaa !166
  %70 = call ptr @H5MM_xfree(ptr noundef %69)
  %71 = load ptr, ptr %4, align 8, !tbaa !165
  %72 = getelementptr inbounds nuw %struct.H5O_storage_virtual_srcdset_t, ptr %71, i32 0, i32 1
  store ptr %70, ptr %72, align 8, !tbaa !166
  br label %74

73:                                               ; preds = %56, %51
  br label %74

74:                                               ; preds = %73, %66
  %75 = load ptr, ptr %3, align 8, !tbaa !127
  %76 = getelementptr inbounds nuw %struct.H5O_storage_virtual_ent_t, ptr %75, i32 0, i32 12
  %77 = load ptr, ptr %76, align 8, !tbaa !145
  %78 = icmp ne ptr %77, null
  br i1 %78, label %79, label %96

79:                                               ; preds = %74
  %80 = load ptr, ptr %4, align 8, !tbaa !165
  %81 = getelementptr inbounds nuw %struct.H5O_storage_virtual_srcdset_t, ptr %80, i32 0, i32 2
  %82 = load ptr, ptr %81, align 8, !tbaa !167
  %83 = load ptr, ptr %3, align 8, !tbaa !127
  %84 = getelementptr inbounds nuw %struct.H5O_storage_virtual_ent_t, ptr %83, i32 0, i32 12
  %85 = load ptr, ptr %84, align 8, !tbaa !145
  %86 = getelementptr inbounds nuw %struct.H5O_storage_virtual_name_seg_t, ptr %85, i32 0, i32 0
  %87 = load ptr, ptr %86, align 8, !tbaa !148
  %88 = icmp ne ptr %82, %87
  br i1 %88, label %89, label %96

89:                                               ; preds = %79
  %90 = load ptr, ptr %4, align 8, !tbaa !165
  %91 = getelementptr inbounds nuw %struct.H5O_storage_virtual_srcdset_t, ptr %90, i32 0, i32 2
  %92 = load ptr, ptr %91, align 8, !tbaa !167
  %93 = call ptr @H5MM_xfree(ptr noundef %92)
  %94 = load ptr, ptr %4, align 8, !tbaa !165
  %95 = getelementptr inbounds nuw %struct.H5O_storage_virtual_srcdset_t, ptr %94, i32 0, i32 2
  store ptr %93, ptr %95, align 8, !tbaa !167
  br label %97

96:                                               ; preds = %79, %74
  br label %97

97:                                               ; preds = %96, %89
  %98 = load ptr, ptr %4, align 8, !tbaa !165
  %99 = getelementptr inbounds nuw %struct.H5O_storage_virtual_srcdset_t, ptr %98, i32 0, i32 4
  %100 = load ptr, ptr %99, align 8, !tbaa !168
  %101 = icmp ne ptr %100, null
  br i1 %101, label %102, label %136

102:                                              ; preds = %97
  %103 = load ptr, ptr %4, align 8, !tbaa !165
  %104 = getelementptr inbounds nuw %struct.H5O_storage_virtual_srcdset_t, ptr %103, i32 0, i32 4
  %105 = load ptr, ptr %104, align 8, !tbaa !168
  %106 = load ptr, ptr %4, align 8, !tbaa !165
  %107 = getelementptr inbounds nuw %struct.H5O_storage_virtual_srcdset_t, ptr %106, i32 0, i32 0
  %108 = load ptr, ptr %107, align 8, !tbaa !169
  %109 = icmp ne ptr %105, %108
  br i1 %109, label %110, label %133

110:                                              ; preds = %102
  %111 = load ptr, ptr %4, align 8, !tbaa !165
  %112 = getelementptr inbounds nuw %struct.H5O_storage_virtual_srcdset_t, ptr %111, i32 0, i32 4
  %113 = load ptr, ptr %112, align 8, !tbaa !168
  %114 = call i32 @H5S_close(ptr noundef %113)
  %115 = icmp slt i32 %114, 0
  br i1 %115, label %116, label %132

116:                                              ; preds = %110
  br label %117

117:                                              ; preds = %116
  br label %118

118:                                              ; preds = %117
  br label %119

119:                                              ; preds = %118
  %120 = load i64, ptr @H5E_DATASET_g, align 8, !tbaa !10
  %121 = load i64, ptr @H5E_CLOSEERROR_g, align 8, !tbaa !10
  %122 = call i32 (ptr, ptr, i32, i64, i64, ptr, ...) @H5E_printf_stack(ptr noundef @.str.1, ptr noundef @__func__.H5D__virtual_reset_source_dset, i32 noundef 988, i64 noundef %120, i64 noundef %121, ptr noundef @.str.73)
  br label %123

123:                                              ; preds = %119
  br label %124

124:                                              ; preds = %123
  store i8 1, ptr %6, align 1, !tbaa !14
  %125 = load i8, ptr %6, align 1, !tbaa !14, !range !16, !noundef !17
  %126 = trunc i8 %125 to i1
  %127 = zext i1 %126 to i8
  store i8 %127, ptr %6, align 1, !tbaa !14
  br label %128

128:                                              ; preds = %124
  br label %129

129:                                              ; preds = %128
  store i32 -1, ptr %5, align 4, !tbaa !12
  br label %130

130:                                              ; preds = %129
  br label %131

131:                                              ; preds = %130
  br label %132

132:                                              ; preds = %131, %110
  br label %133

133:                                              ; preds = %132, %102
  %134 = load ptr, ptr %4, align 8, !tbaa !165
  %135 = getelementptr inbounds nuw %struct.H5O_storage_virtual_srcdset_t, ptr %134, i32 0, i32 4
  store ptr null, ptr %135, align 8, !tbaa !168
  br label %136

136:                                              ; preds = %133, %97
  %137 = load ptr, ptr %4, align 8, !tbaa !165
  %138 = getelementptr inbounds nuw %struct.H5O_storage_virtual_srcdset_t, ptr %137, i32 0, i32 0
  %139 = load ptr, ptr %138, align 8, !tbaa !169
  %140 = icmp ne ptr %139, null
  br i1 %140, label %141, label %166

141:                                              ; preds = %136
  %142 = load ptr, ptr %4, align 8, !tbaa !165
  %143 = getelementptr inbounds nuw %struct.H5O_storage_virtual_srcdset_t, ptr %142, i32 0, i32 0
  %144 = load ptr, ptr %143, align 8, !tbaa !169
  %145 = call i32 @H5S_close(ptr noundef %144)
  %146 = icmp slt i32 %145, 0
  br i1 %146, label %147, label %163

147:                                              ; preds = %141
  br label %148

148:                                              ; preds = %147
  br label %149

149:                                              ; preds = %148
  br label %150

150:                                              ; preds = %149
  %151 = load i64, ptr @H5E_DATASET_g, align 8, !tbaa !10
  %152 = load i64, ptr @H5E_CLOSEERROR_g, align 8, !tbaa !10
  %153 = call i32 (ptr, ptr, i32, i64, i64, ptr, ...) @H5E_printf_stack(ptr noundef @.str.1, ptr noundef @__func__.H5D__virtual_reset_source_dset, i32 noundef 995, i64 noundef %151, i64 noundef %152, ptr noundef @.str.74)
  br label %154

154:                                              ; preds = %150
  br label %155

155:                                              ; preds = %154
  store i8 1, ptr %6, align 1, !tbaa !14
  %156 = load i8, ptr %6, align 1, !tbaa !14, !range !16, !noundef !17
  %157 = trunc i8 %156 to i1
  %158 = zext i1 %157 to i8
  store i8 %158, ptr %6, align 1, !tbaa !14
  br label %159

159:                                              ; preds = %155
  br label %160

160:                                              ; preds = %159
  store i32 -1, ptr %5, align 4, !tbaa !12
  br label %161

161:                                              ; preds = %160
  br label %162

162:                                              ; preds = %161
  br label %163

163:                                              ; preds = %162, %141
  %164 = load ptr, ptr %4, align 8, !tbaa !165
  %165 = getelementptr inbounds nuw %struct.H5O_storage_virtual_srcdset_t, ptr %164, i32 0, i32 0
  store ptr null, ptr %165, align 8, !tbaa !169
  br label %166

166:                                              ; preds = %163, %136
  %167 = load ptr, ptr %4, align 8, !tbaa !165
  %168 = getelementptr inbounds nuw %struct.H5O_storage_virtual_srcdset_t, ptr %167, i32 0, i32 3
  %169 = load ptr, ptr %168, align 8, !tbaa !170
  %170 = icmp ne ptr %169, null
  br i1 %170, label %171, label %205

171:                                              ; preds = %166
  %172 = load ptr, ptr %4, align 8, !tbaa !165
  %173 = getelementptr inbounds nuw %struct.H5O_storage_virtual_srcdset_t, ptr %172, i32 0, i32 3
  %174 = load ptr, ptr %173, align 8, !tbaa !170
  %175 = load ptr, ptr %3, align 8, !tbaa !127
  %176 = getelementptr inbounds nuw %struct.H5O_storage_virtual_ent_t, ptr %175, i32 0, i32 3
  %177 = load ptr, ptr %176, align 8, !tbaa !64
  %178 = icmp ne ptr %174, %177
  br i1 %178, label %179, label %202

179:                                              ; preds = %171
  %180 = load ptr, ptr %4, align 8, !tbaa !165
  %181 = getelementptr inbounds nuw %struct.H5O_storage_virtual_srcdset_t, ptr %180, i32 0, i32 3
  %182 = load ptr, ptr %181, align 8, !tbaa !170
  %183 = call i32 @H5S_close(ptr noundef %182)
  %184 = icmp slt i32 %183, 0
  br i1 %184, label %185, label %201

185:                                              ; preds = %179
  br label %186

186:                                              ; preds = %185
  br label %187

187:                                              ; preds = %186
  br label %188

188:                                              ; preds = %187
  %189 = load i64, ptr @H5E_DATASET_g, align 8, !tbaa !10
  %190 = load i64, ptr @H5E_CLOSEERROR_g, align 8, !tbaa !10
  %191 = call i32 (ptr, ptr, i32, i64, i64, ptr, ...) @H5E_printf_stack(ptr noundef @.str.1, ptr noundef @__func__.H5D__virtual_reset_source_dset, i32 noundef 1003, i64 noundef %189, i64 noundef %190, ptr noundef @.str.75)
  br label %192

192:                                              ; preds = %188
  br label %193

193:                                              ; preds = %192
  store i8 1, ptr %6, align 1, !tbaa !14
  %194 = load i8, ptr %6, align 1, !tbaa !14, !range !16, !noundef !17
  %195 = trunc i8 %194 to i1
  %196 = zext i1 %195 to i8
  store i8 %196, ptr %6, align 1, !tbaa !14
  br label %197

197:                                              ; preds = %193
  br label %198

198:                                              ; preds = %197
  store i32 -1, ptr %5, align 4, !tbaa !12
  br label %199

199:                                              ; preds = %198
  br label %200

200:                                              ; preds = %199
  br label %201

201:                                              ; preds = %200, %179
  br label %202

202:                                              ; preds = %201, %171
  %203 = load ptr, ptr %4, align 8, !tbaa !165
  %204 = getelementptr inbounds nuw %struct.H5O_storage_virtual_srcdset_t, ptr %203, i32 0, i32 3
  store ptr null, ptr %204, align 8, !tbaa !170
  br label %205

205:                                              ; preds = %202, %166
  br label %206

206:                                              ; preds = %205, %13
  %207 = load i32, ptr %5, align 4, !tbaa !12
  call void @llvm.lifetime.end.p0(i64 1, ptr %6) #10
  call void @llvm.lifetime.end.p0(i64 4, ptr %5) #10
  ret i32 %207
}