; Function Attrs: nounwind uwtable
define internal fastcc range(i32 -1, 1) i32 @H5D__virtual_reset_source_dset(ptr noundef readonly captures(none) %0, ptr noundef captures(none) %1) unnamed_addr #0 {
  %3 = load i8, ptr @H5D_init_g, align 1, !tbaa !3, !range !7, !noundef !8
  %4 = trunc nuw i8 %3 to i1
  %5 = load i8, ptr @H5_libterm_g, align 1, !range !7
  %6 = trunc nuw i8 %5 to i1
  %7 = xor i1 %6, true
  %8 = select i1 %4, i1 true, i1 %7
  br i1 %8, label %9, label %74, !prof !9

9:                                                ; preds = %2
  %10 = getelementptr inbounds nuw i8, ptr %1, i64 40
  %11 = load ptr, ptr %10, align 8, !tbaa !74
  %.not = icmp eq ptr %11, null
  br i1 %.not, label %20, label %12

12:                                               ; preds = %9
  %13 = tail call i32 @H5D_close(ptr noundef nonnull %11) #14
  %14 = icmp slt i32 %13, 0
  br i1 %14, label %15, label %19

15:                                               ; preds = %12
  %16 = load i64, ptr @H5E_DATASET_g, align 8, !tbaa !24
  %17 = load i64, ptr @H5E_CLOSEERROR_g, align 8, !tbaa !24
  %18 = tail call i32 (ptr, ptr, i32, i64, i64, ptr, ...) @H5E_printf_stack(ptr noundef nonnull @.str.1, ptr noundef nonnull @__func__.H5D__virtual_reset_source_dset, i32 noundef 960, i64 noundef %16, i64 noundef %17, ptr noundef nonnull @.str.56) #14
  br label %19

19:                                               ; preds = %15, %12
  %.2 = phi i32 [ -1, %15 ], [ 0, %12 ]
  store ptr null, ptr %10, align 8, !tbaa !74
  br label %20

20:                                               ; preds = %19, %9
  %.1 = phi i32 [ %.2, %19 ], [ 0, %9 ]
  %21 = getelementptr inbounds nuw i8, ptr %0, i64 128
  %22 = load ptr, ptr %21, align 8, !tbaa !127
  %.not38 = icmp eq ptr %22, null
  br i1 %.not38, label %29, label %23

23:                                               ; preds = %20
  %24 = getelementptr inbounds nuw i8, ptr %1, i64 8
  %25 = load ptr, ptr %24, align 8, !tbaa !148
  %26 = load ptr, ptr %22, align 8, !tbaa !132
  %.not39 = icmp eq ptr %25, %26
  br i1 %.not39, label %29, label %27

27:                                               ; preds = %23
  %28 = tail call ptr @H5MM_xfree(ptr noundef %25) #14
  store ptr %28, ptr %24, align 8, !tbaa !148
  br label %29

29:                                               ; preds = %20, %23, %27
  %30 = getelementptr inbounds nuw i8, ptr %0, i64 152
  %31 = load ptr, ptr %30, align 8, !tbaa !129
  %.not40 = icmp eq ptr %31, null
  br i1 %.not40, label %38, label %32

32:                                               ; preds = %29
  %33 = getelementptr inbounds nuw i8, ptr %1, i64 16
  %34 = load ptr, ptr %33, align 8, !tbaa !149
  %35 = load ptr, ptr %31, align 8, !tbaa !132
  %.not41 = icmp eq ptr %34, %35
  br i1 %.not41, label %38, label %36

36:                                               ; preds = %32
  %37 = tail call ptr @H5MM_xfree(ptr noundef %34) #14
  store ptr %37, ptr %33, align 8, !tbaa !149
  br label %38

38:                                               ; preds = %29, %32, %36
  %39 = getelementptr inbounds nuw i8, ptr %1, i64 32
  %40 = load ptr, ptr %39, align 8, !tbaa !150
  %.not42 = icmp eq ptr %40, null
  %.pre47 = load ptr, ptr %1, align 8, !tbaa !151
  br i1 %.not42, label %50, label %41

41:                                               ; preds = %38
  %.not43 = icmp eq ptr %40, %.pre47
  br i1 %.not43, label %49, label %42

42:                                               ; preds = %41
  %43 = tail call i32 @H5S_close(ptr noundef nonnull %40) #14
  %44 = icmp slt i32 %43, 0
  br i1 %44, label %45, label %49

45:                                               ; preds = %42
  %46 = load i64, ptr @H5E_DATASET_g, align 8, !tbaa !24
  %47 = load i64, ptr @H5E_CLOSEERROR_g, align 8, !tbaa !24
  %48 = tail call i32 (ptr, ptr, i32, i64, i64, ptr, ...) @H5E_printf_stack(ptr noundef nonnull @.str.1, ptr noundef nonnull @__func__.H5D__virtual_reset_source_dset, i32 noundef 988, i64 noundef %46, i64 noundef %47, ptr noundef nonnull @.str.73) #14
  br label %49

49:                                               ; preds = %42, %45, %41
  %.4 = phi i32 [ -1, %45 ], [ %.1, %42 ], [ %.1, %41 ]
  store ptr null, ptr %39, align 8, !tbaa !150
  %.pre = load ptr, ptr %1, align 8, !tbaa !151
  br label %50

50:                                               ; preds = %49, %38
  %51 = phi ptr [ %.pre, %49 ], [ %.pre47, %38 ]
  %.3 = phi i32 [ %.4, %49 ], [ %.1, %38 ]
  %.not44 = icmp eq ptr %51, null
  br i1 %.not44, label %60, label %52

52:                                               ; preds = %50
  %53 = tail call i32 @H5S_close(ptr noundef nonnull %51) #14
  %54 = icmp slt i32 %53, 0
  br i1 %54, label %55, label %59

55:                                               ; preds = %52
  %56 = load i64, ptr @H5E_DATASET_g, align 8, !tbaa !24
  %57 = load i64, ptr @H5E_CLOSEERROR_g, align 8, !tbaa !24
  %58 = tail call i32 (ptr, ptr, i32, i64, i64, ptr, ...) @H5E_printf_stack(ptr noundef nonnull @.str.1, ptr noundef nonnull @__func__.H5D__virtual_reset_source_dset, i32 noundef 995, i64 noundef %56, i64 noundef %57, ptr noundef nonnull @.str.74) #14
  br label %59

59:                                               ; preds = %55, %52
  %.6 = phi i32 [ -1, %55 ], [ %.3, %52 ]
  store ptr null, ptr %1, align 8, !tbaa !151
  br label %60

60:                                               ; preds = %59, %50
  %.5 = phi i32 [ %.6, %59 ], [ %.3, %50 ]
  %61 = getelementptr inbounds nuw i8, ptr %1, i64 24
  %62 = load ptr, ptr %61, align 8, !tbaa !152
  %.not45 = icmp eq ptr %62, null
  br i1 %.not45, label %74, label %63

63:                                               ; preds = %60
  %64 = getelementptr inbounds nuw i8, ptr %0, i64 80
  %65 = load ptr, ptr %64, align 8, !tbaa !62
  %.not46 = icmp eq ptr %62, %65
  br i1 %.not46, label %73, label %66

66:                                               ; preds = %63
  %67 = tail call i32 @H5S_close(ptr noundef nonnull %62) #14
  %68 = icmp slt i32 %67, 0
  br i1 %68, label %69, label %73

69:                                               ; preds = %66
  %70 = load i64, ptr @H5E_DATASET_g, align 8, !tbaa !24
  %71 = load i64, ptr @H5E_CLOSEERROR_g, align 8, !tbaa !24
  %72 = tail call i32 (ptr, ptr, i32, i64, i64, ptr, ...) @H5E_printf_stack(ptr noundef nonnull @.str.1, ptr noundef nonnull @__func__.H5D__virtual_reset_source_dset, i32 noundef 1003, i64 noundef %70, i64 noundef %71, ptr noundef nonnull @.str.75) #14
  br label %73

73:                                               ; preds = %66, %69, %63
  %.7 = phi i32 [ -1, %69 ], [ %.5, %66 ], [ %.5, %63 ]
  store ptr null, ptr %61, align 8, !tbaa !152
  br label %74

74:                                               ; preds = %60, %73, %2
  %.0 = phi i32 [ %.7, %73 ], [ %.5, %60 ], [ 0, %2 ]
  ret i32 %.0
}